; ModuleID = 'source-C-CXX/51/5265.cpp'
source_filename = "source-C-CXX/51/5265.cpp"
target datalayout = "e-m:e-p270:32:32-p271:32:32-p272:64:64-i64:64-f80:128-n8:16:32:64-S128"
target triple = "x86_64-pc-linux-gnu"

%"class.std::ios_base::Init" = type { i8 }
%"class.std::basic_istream" = type { i32 (...)**, i64, %"class.std::basic_ios" }
%"class.std::basic_ios" = type { %"class.std::ios_base", %"class.std::basic_ostream"*, i8, i8, %"class.std::basic_streambuf"*, %"class.std::ctype"*, %"class.std::num_put"*, %"class.std::num_get"* }
%"class.std::ios_base" = type { i32 (...)**, i64, i64, i32, i32, i32, %"struct.std::ios_base::_Callback_list"*, %"struct.std::ios_base::_Words", [8 x %"struct.std::ios_base::_Words"], i32, %"struct.std::ios_base::_Words"*, %"class.std::locale" }
%"struct.std::ios_base::_Callback_list" = type { %"struct.std::ios_base::_Callback_list"*, void (i32, %"class.std::ios_base"*, i32)*, i32, i32 }
%"struct.std::ios_base::_Words" = type { i8*, i64 }
%"class.std::locale" = type { %"class.std::locale::_Impl"* }
%"class.std::locale::_Impl" = type { i32, %"class.std::locale::facet"**, i64, %"class.std::locale::facet"**, i8** }
%"class.std::locale::facet" = type <{ i32 (...)**, i32, [4 x i8] }>
%"class.std::basic_ostream" = type { i32 (...)**, %"class.std::basic_ios" }
%"class.std::basic_streambuf" = type { i32 (...)**, i8*, i8*, i8*, i8*, i8*, i8*, %"class.std::locale" }
%"class.std::ctype" = type <{ %"class.std::locale::facet.base", [4 x i8], %struct.__locale_struct*, i8, [7 x i8], i32*, i32*, i16*, i8, [256 x i8], [256 x i8], i8, [6 x i8] }>
%"class.std::locale::facet.base" = type <{ i32 (...)**, i32 }>
%struct.__locale_struct = type { [13 x %struct.__locale_data*], i16*, i32*, i32*, [13 x i8*] }
%struct.__locale_data = type opaque
%"class.std::num_put" = type { %"class.std::locale::facet.base", [4 x i8] }
%"class.std::num_get" = type { %"class.std::locale::facet.base", [4 x i8] }

@_ZStL8__ioinit = internal global %"class.std::ios_base::Init" zeroinitializer, align 1
@__dso_handle = external hidden global i8
@_ZSt3cin = external global %"class.std::basic_istream", align 8
@_ZSt4cout = external global %"class.std::basic_ostream", align 8
@.str = private unnamed_addr constant [2 x i8] c" \00", align 1
@llvm.global_ctors = appending global [1 x { i32, void ()*, i8* }] [{ i32, void ()*, i8* } { i32 65535, void ()* @_GLOBAL__sub_I_5265.cpp, i8* null }]

declare void @_ZNSt8ios_base4InitC1Ev(%"class.std::ios_base::Init"* nonnull align 1 dereferenceable(1)) unnamed_addr #0

; Function Attrs: nounwind
declare void @_ZNSt8ios_base4InitD1Ev(%"class.std::ios_base::Init"* nonnull align 1 dereferenceable(1)) unnamed_addr #1

; Function Attrs: nofree nounwind
declare i32 @__cxa_atexit(void (i8*)*, i8*, i8*) local_unnamed_addr #2

; Function Attrs: mustprogress norecurse sspstrong uwtable
define dso_local i32 @main() local_unnamed_addr #3 {
  %1 = alloca i32, align 4
  %2 = alloca i32, align 4
  %3 = alloca [100 x i32], align 16
  %4 = bitcast i32* %1 to i8*
  call void @llvm.lifetime.start.p0i8(i64 4, i8* nonnull %4) #6
  %5 = bitcast i32* %2 to i8*
  call void @llvm.lifetime.start.p0i8(i64 4, i8* nonnull %5) #6
  %6 = bitcast [100 x i32]* %3 to i8*
  call void @llvm.lifetime.start.p0i8(i64 400, i8* nonnull %6) #6
  %7 = getelementptr inbounds [100 x i32], [100 x i32]* %3, i64 0, i64 0
  %8 = call nonnull align 8 dereferenceable(16) %"class.std::basic_istream"* @_ZNSirsERi(%"class.std::basic_istream"* nonnull align 8 dereferenceable(16) @_ZSt3cin, i32* nonnull align 4 dereferenceable(4) %2)
  %9 = call nonnull align 8 dereferenceable(16) %"class.std::basic_istream"* @_ZNSirsERi(%"class.std::basic_istream"* nonnull align 8 dereferenceable(16) %8, i32* nonnull align 4 dereferenceable(4) %1)
  %10 = load i32, i32* %2, align 4, !tbaa !5
  %11 = icmp sgt i32 %10, 0
  br i1 %11, label %105, label %12

12:                                               ; preds = %105, %0
  %13 = phi i32 [ %10, %0 ], [ %110, %105 ]
  %14 = load i32, i32* %1, align 4, !tbaa !5
  %15 = icmp sgt i32 %14, 0
  br i1 %15, label %18, label %16

16:                                               ; preds = %12
  %17 = load i32, i32* %7, align 16, !tbaa !5
  br label %115

18:                                               ; preds = %12
  %19 = icmp sgt i32 %13, 1
  %20 = load i32, i32* %7, align 16, !tbaa !5
  br i1 %19, label %21, label %113

21:                                               ; preds = %18
  %22 = add nsw i32 %13, -1
  %23 = zext i32 %22 to i64
  %24 = and i64 %23, 4294967288
  %25 = add nsw i64 %24, -8
  %26 = lshr exact i64 %25, 3
  %27 = add nuw nsw i64 %26, 1
  %28 = icmp ult i32 %22, 8
  %29 = and i64 %23, 4294967288
  %30 = and i64 %27, 1
  %31 = icmp eq i64 %25, 0
  %32 = and i64 %27, 4611686018427387902
  %33 = icmp eq i64 %30, 0
  %34 = icmp eq i64 %29, %23
  br label %35

35:                                               ; preds = %21, %101
  %36 = phi i32 [ %102, %101 ], [ %20, %21 ]
  %37 = phi i32 [ %103, %101 ], [ 0, %21 ]
  br i1 %28, label %90, label %38

38:                                               ; preds = %35
  %39 = insertelement <4 x i32> poison, i32 %36, i32 3
  br i1 %31, label %70, label %40

40:                                               ; preds = %38, %40
  %41 = phi i64 [ %67, %40 ], [ 0, %38 ]
  %42 = phi <4 x i32> [ %62, %40 ], [ %39, %38 ]
  %43 = phi i64 [ %68, %40 ], [ %32, %38 ]
  %44 = getelementptr inbounds [100 x i32], [100 x i32]* %3, i64 0, i64 %41
  %45 = getelementptr inbounds i32, i32* %44, i64 1
  %46 = bitcast i32* %45 to <4 x i32>*
  %47 = load <4 x i32>, <4 x i32>* %46, align 4, !tbaa !5
  %48 = getelementptr inbounds i32, i32* %44, i64 5
  %49 = bitcast i32* %48 to <4 x i32>*
  %50 = load <4 x i32>, <4 x i32>* %49, align 4, !tbaa !5
  %51 = shufflevector <4 x i32> %42, <4 x i32> %47, <4 x i32> <i32 3, i32 4, i32 5, i32 6>
  %52 = shufflevector <4 x i32> %47, <4 x i32> %50, <4 x i32> <i32 3, i32 4, i32 5, i32 6>
  %53 = bitcast i32* %45 to <4 x i32>*
  store <4 x i32> %51, <4 x i32>* %53, align 4, !tbaa !5
  %54 = bitcast i32* %48 to <4 x i32>*
  store <4 x i32> %52, <4 x i32>* %54, align 4, !tbaa !5
  %55 = or i64 %41, 8
  %56 = getelementptr inbounds [100 x i32], [100 x i32]* %3, i64 0, i64 %55
  %57 = getelementptr inbounds i32, i32* %56, i64 1
  %58 = bitcast i32* %57 to <4 x i32>*
  %59 = load <4 x i32>, <4 x i32>* %58, align 4, !tbaa !5
  %60 = getelementptr inbounds i32, i32* %56, i64 5
  %61 = bitcast i32* %60 to <4 x i32>*
  %62 = load <4 x i32>, <4 x i32>* %61, align 4, !tbaa !5
  %63 = shufflevector <4 x i32> %50, <4 x i32> %59, <4 x i32> <i32 3, i32 4, i32 5, i32 6>
  %64 = shufflevector <4 x i32> %59, <4 x i32> %62, <4 x i32> <i32 3, i32 4, i32 5, i32 6>
  %65 = bitcast i32* %57 to <4 x i32>*
  store <4 x i32> %63, <4 x i32>* %65, align 4, !tbaa !5
  %66 = bitcast i32* %60 to <4 x i32>*
  store <4 x i32> %64, <4 x i32>* %66, align 4, !tbaa !5
  %67 = add nuw i64 %41, 16
  %68 = add i64 %43, -2
  %69 = icmp eq i64 %68, 0
  br i1 %69, label %70, label %40, !llvm.loop !9

70:                                               ; preds = %40, %38
  %71 = phi <4 x i32> [ undef, %38 ], [ %62, %40 ]
  %72 = phi i64 [ 0, %38 ], [ %67, %40 ]
  %73 = phi <4 x i32> [ %39, %38 ], [ %62, %40 ]
  br i1 %33, label %86, label %74

74:                                               ; preds = %70
  %75 = getelementptr inbounds [100 x i32], [100 x i32]* %3, i64 0, i64 %72
  %76 = getelementptr inbounds i32, i32* %75, i64 1
  %77 = bitcast i32* %76 to <4 x i32>*
  %78 = load <4 x i32>, <4 x i32>* %77, align 4, !tbaa !5
  %79 = getelementptr inbounds i32, i32* %75, i64 5
  %80 = bitcast i32* %79 to <4 x i32>*
  %81 = load <4 x i32>, <4 x i32>* %80, align 4, !tbaa !5
  %82 = shufflevector <4 x i32> %73, <4 x i32> %78, <4 x i32> <i32 3, i32 4, i32 5, i32 6>
  %83 = shufflevector <4 x i32> %78, <4 x i32> %81, <4 x i32> <i32 3, i32 4, i32 5, i32 6>
  %84 = bitcast i32* %76 to <4 x i32>*
  store <4 x i32> %82, <4 x i32>* %84, align 4, !tbaa !5
  %85 = bitcast i32* %79 to <4 x i32>*
  store <4 x i32> %83, <4 x i32>* %85, align 4, !tbaa !5
  br label %86

86:                                               ; preds = %70, %74
  %87 = phi <4 x i32> [ %71, %70 ], [ %81, %74 ]
  %88 = extractelement <4 x i32> %87, i32 3
  %89 = extractelement <4 x i32> %87, i32 3
  br i1 %34, label %101, label %90

90:                                               ; preds = %35, %86
  %91 = phi i64 [ %29, %86 ], [ 0, %35 ]
  %92 = phi i32 [ %88, %86 ], [ %36, %35 ]
  br label %93

93:                                               ; preds = %90, %93
  %94 = phi i64 [ %99, %93 ], [ %91, %90 ]
  %95 = phi i32 [ %98, %93 ], [ %92, %90 ]
  %96 = getelementptr inbounds [100 x i32], [100 x i32]* %3, i64 0, i64 %94
  %97 = getelementptr inbounds i32, i32* %96, i64 1
  %98 = load i32, i32* %97, align 4, !tbaa !5
  store i32 %95, i32* %97, align 4, !tbaa !5
  %99 = add nuw nsw i64 %94, 1
  %100 = icmp eq i64 %99, %23
  br i1 %100, label %101, label %93, !llvm.loop !12

101:                                              ; preds = %93, %86
  %102 = phi i32 [ %89, %86 ], [ %98, %93 ]
  %103 = add nuw nsw i32 %37, 1
  %104 = icmp eq i32 %103, %14
  br i1 %104, label %113, label %35, !llvm.loop !14

105:                                              ; preds = %0, %105
  %106 = phi i64 [ %109, %105 ], [ 0, %0 ]
  %107 = getelementptr inbounds [100 x i32], [100 x i32]* %3, i64 0, i64 %106
  %108 = call nonnull align 8 dereferenceable(16) %"class.std::basic_istream"* @_ZNSirsERi(%"class.std::basic_istream"* nonnull align 8 dereferenceable(16) @_ZSt3cin, i32* nonnull align 4 dereferenceable(4) %107)
  %109 = add nuw nsw i64 %106, 1
  %110 = load i32, i32* %2, align 4, !tbaa !5
  %111 = sext i32 %110 to i64
  %112 = icmp slt i64 %109, %111
  br i1 %112, label %105, label %12, !llvm.loop !15

113:                                              ; preds = %101, %18
  %114 = phi i32 [ %20, %18 ], [ %102, %101 ]
  store i32 %114, i32* %7, align 16, !tbaa !5
  br label %115

115:                                              ; preds = %16, %113
  %116 = phi i32 [ %17, %16 ], [ %114, %113 ]
  %117 = call nonnull align 8 dereferenceable(8) %"class.std::basic_ostream"* @_ZNSolsEi(%"class.std::basic_ostream"* nonnull align 8 dereferenceable(8) @_ZSt4cout, i32 %116)
  %118 = load i32, i32* %2, align 4, !tbaa !5
  %119 = icmp sgt i32 %118, 1
  br i1 %119, label %120, label %130

120:                                              ; preds = %115, %120
  %121 = phi i64 [ %126, %120 ], [ 1, %115 ]
  %122 = call nonnull align 8 dereferenceable(8) %"class.std::basic_ostream"* @_ZSt16__ostream_insertIcSt11char_traitsIcEERSt13basic_ostreamIT_T0_ES6_PKS3_l(%"class.std::basic_ostream"* nonnull align 8 dereferenceable(8) @_ZSt4cout, i8* nonnull getelementptr inbounds ([2 x i8], [2 x i8]* @.str, i64 0, i64 0), i64 1)
  %123 = getelementptr inbounds [100 x i32], [100 x i32]* %3, i64 0, i64 %121
  %124 = load i32, i32* %123, align 4, !tbaa !5
  %125 = call nonnull align 8 dereferenceable(8) %"class.std::basic_ostream"* @_ZNSolsEi(%"class.std::basic_ostream"* nonnull align 8 dereferenceable(8) @_ZSt4cout, i32 %124)
  %126 = add nuw nsw i64 %121, 1
  %127 = load i32, i32* %2, align 4, !tbaa !5
  %128 = sext i32 %127 to i64
  %129 = icmp slt i64 %126, %128
  br i1 %129, label %120, label %130, !llvm.loop !16

130:                                              ; preds = %120, %115
  call void @llvm.lifetime.end.p0i8(i64 400, i8* nonnull %6) #6
  call void @llvm.lifetime.end.p0i8(i64 4, i8* nonnull %5) #6
  call void @llvm.lifetime.end.p0i8(i64 4, i8* nonnull %4) #6
  ret i32 0
}

; Function Attrs: argmemonly mustprogress nofree nosync nounwind willreturn
declare void @llvm.lifetime.start.p0i8(i64 immarg, i8* nocapture) #4

declare nonnull align 8 dereferenceable(16) %"class.std::basic_istream"* @_ZNSirsERi(%"class.std::basic_istream"* nonnull align 8 dereferenceable(16), i32* nonnull align 4 dereferenceable(4)) local_unnamed_addr #0

declare nonnull align 8 dereferenceable(8) %"class.std::basic_ostream"* @_ZNSolsEi(%"class.std::basic_ostream"* nonnull align 8 dereferenceable(8), i32) local_unnamed_addr #0

; Function Attrs: argmemonly mustprogress nofree nosync nounwind willreturn
declare void @llvm.lifetime.end.p0i8(i64 immarg, i8* nocapture) #4

declare nonnull align 8 dereferenceable(8) %"class.std::basic_ostream"* @_ZSt16__ostream_insertIcSt11char_traitsIcEERSt13basic_ostreamIT_T0_ES6_PKS3_l(%"class.std::basic_ostream"* nonnull align 8 dereferenceable(8), i8*, i64) local_unnamed_addr #0

; Function Attrs: sspstrong uwtable
define internal void @_GLOBAL__sub_I_5265.cpp() #5 section ".text.startup" {
  tail call void @_ZNSt8ios_base4InitC1Ev(%"class.std::ios_base::Init"* nonnull align 1 dereferenceable(1) @_ZStL8__ioinit)
  %1 = tail call i32 @__cxa_atexit(void (i8*)* bitcast (void (%"class.std::ios_base::Init"*)* @_ZNSt8ios_base4InitD1Ev to void (i8*)*), i8* getelementptr inbounds (%"class.std::ios_base::Init", %"class.std::ios_base::Init"* @_ZStL8__ioinit, i64 0, i32 0), i8* nonnull @__dso_handle) #6
  ret void
}


!llvm.module.flags = !{!0, !1, !2, !3}
!llvm.ident = !{!4}

!0 = !{i32 1, !"wchar_size", i32 4}
!1 = !{i32 7, !"PIC Level", i32 2}
!2 = !{i32 7, !"PIE Level", i32 2}
!3 = !{i32 7, !"uwtable", i32 1}
!4 = !{!"clang version 13.0.0"}
!5 = !{!6, !6, i64 0}
!6 = !{!"int", !7, i64 0}
!7 = !{!"omnipotent char", !8, i64 0}
!8 = !{!"Simple C++ TBAA"}
!9 = distinct !{!9, !10, !11}
!10 = !{!"llvm.loop.mustprogress"}
!11 = !{!"llvm.loop.isvectorized", i32 1}
!12 = distinct !{!12, !10, !13, !11}
!13 = !{!"llvm.loop.unroll.runtime.disable"}
!14 = distinct !{!14, !10}
!15 = distinct !{!15, !10}
!16 = distinct !{!16, !10}
